(dp0
S'students'
p1
c__builtin__
set
p2
((lp3
ccopy_reg
_reconstructor
p4
(cStudent
Student
p5
c__builtin__
object
p6
Ntp7
Rp8
(dp9
S'instructor'
p10
g4
(cInstructor
Instructor
p11
g6
Ntp12
Rp13
(dp14
S'name'
p15
S'test'
p16
sbsg15
S'test1'
p17
sS'myCurrentLevel'
p18
I0
sbatp19
Rp20
sS'instructors'
p21
g2
((lp22
g13
atp23
Rp24
s.