(dp0
S'students'
p1
c__builtin__
set
p2
((lp3
ccopy_reg
_reconstructor
p4
(cStudent
Student
p5
c__builtin__
object
p6
Ntp7
Rp8
(dp9
S'instructor'
p10
g4
(cInstructor
Instructor
p11
g6
Ntp12
Rp13
(dp14
S'name'
p15
S'Panchito'
p16
sbsg15
S'Minnie Mouse'
p17
sS'myCurrentLevel'
p18
I0
sbag4
(g5
g6
Ntp19
Rp20
(dp21
g10
g4
(g11
g6
Ntp22
Rp23
(dp24
g15
S'Donald Duck'
p25
sbsg15
S'Daisy Duck'
p26
sg18
I0
sbag4
(g5
g6
Ntp27
Rp28
(dp29
g10
g13
sg15
S'Mickey Mouse'
p30
sg18
I0
sbag4
(g5
g6
Ntp31
Rp32
(dp33
g10
g4
(g11
g6
Ntp34
Rp35
(dp36
g15
S'Jose Carioca'
p37
sbsg15
S'Goofy'
p38
sg18
I0
sbatp39
Rp40
sS'weeks'
p41
(lp42
g4
(cWeek
Week
p43
g6
Ntp44
Rp45
(dp46
S'weekStartDate'
p47
cdatetime
date
p48
(S'\x07\xdb\t\x05'
p49
tp50
Rp51
sS'myPlayList'
p52
g2
((lp53
g4
(cPlayListObject
PlayListObject
p54
g6
Ntp55
Rp56
(dp57
S'requiredPlayCount'
p58
I5
sS'song'
p59
g4
(cSong
Song
p60
g6
Ntp61
Rp62
(dp63
g15
S'Scale in A'
p64
sS'level'
p65
I0
sbsbag4
(g54
g6
Ntp66
Rp67
(dp68
g58
I5
sg59
g4
(g60
g6
Ntp69
Rp70
(dp71
g15
S'Ima Beginner'
p72
sg65
I0
sbsbag4
(g54
g6
Ntp73
Rp74
(dp75
g58
I5
sg59
g4
(g60
g6
Ntp76
Rp77
(dp78
g15
S'Scale in C'
p79
sg65
I0
sbsbatp80
Rp81
sg65
I0
sbag4
(g43
g6
Ntp82
Rp83
(dp84
g47
g48
(S'\x07\xdb\t\x0c'
p85
tp86
Rp87
sg52
g2
((lp88
g4
(g54
g6
Ntp89
Rp90
(dp91
g58
I5
sg59
g4
(g60
g6
Ntp92
Rp93
(dp94
g15
S'Scale in C#'
p95
sg65
I1
sbsbag4
(g54
g6
Ntp96
Rp97
(dp98
g58
I5
sg59
g4
(g60
g6
Ntp99
Rp100
(dp101
g15
S'Twinkle Twinkle'
p102
sg65
I1
sbsbag4
(g54
g6
Ntp103
Rp104
(dp105
g58
I5
sg59
g4
(g60
g6
Ntp106
Rp107
(dp108
g15
S'Hot Cross Buns'
p109
sg65
I1
sbsbatp110
Rp111
sg65
I1
sbag4
(g43
g6
Ntp112
Rp113
(dp114
g47
g48
(S'\x07\xdb\t\x13'
p115
tp116
Rp117
sg52
g2
((lp118
g4
(g54
g6
Ntp119
Rp120
(dp121
g58
I5
sg59
g4
(g60
g6
Ntp122
Rp123
(dp124
g15
S'Bach Schmetterling'
p125
sg65
I2
sbsbag4
(g54
g6
Ntp126
Rp127
(dp128
g58
I5
sg59
g4
(g60
g6
Ntp129
Rp130
(dp131
g15
S"Bethooven's 22nd"
p132
sg65
I2
sbsbag4
(g54
g6
Ntp133
Rp134
(dp135
g58
I5
sg59
g4
(g60
g6
Ntp136
Rp137
(dp138
g15
S'Fur Elise'
p139
sg65
I2
sbsbatp140
Rp141
sg65
I2
sbag4
(g43
g6
Ntp142
Rp143
(dp144
g47
g48
(S'\x07\xdb\t\x1a'
p145
tp146
Rp147
sg52
g2
((lp148
g4
(g54
g6
Ntp149
Rp150
(dp151
g58
I5
sg59
g4
(g60
g6
Ntp152
Rp153
(dp154
g15
S'Practice Chords #2'
p155
sg65
I3
sbsbag4
(g54
g6
Ntp156
Rp157
(dp158
g58
I5
sg59
g4
(g60
g6
Ntp159
Rp160
(dp161
g15
S'Practice Chords #1'
p162
sg65
I3
sbsbag4
(g54
g6
Ntp163
Rp164
(dp165
g58
I5
sg59
g4
(g60
g6
Ntp166
Rp167
(dp168
g15
S'Chopsticks'
p169
sg65
I3
sbsbag4
(g54
g6
Ntp170
Rp171
(dp172
g58
I5
sg59
g4
(g60
g6
Ntp173
Rp174
(dp175
g15
S'The Entertainer'
p176
sg65
I3
sbsbatp177
Rp178
sg65
I3
sbag4
(g43
g6
Ntp179
Rp180
(dp181
g47
g48
(S'\x07\xdb\n\x03'
p182
tp183
Rp184
sg52
g2
((lp185
g4
(g54
g6
Ntp186
Rp187
(dp188
g58
I5
sg59
g4
(g60
g6
Ntp189
Rp190
(dp191
g15
S'Practice Chords #4'
p192
sg65
I4
sbsbag4
(g54
g6
Ntp193
Rp194
(dp195
g58
I5
sg59
g4
(g60
g6
Ntp196
Rp197
(dp198
g15
S'Practice Chords #5'
p199
sg65
I4
sbsbag4
(g54
g6
Ntp200
Rp201
(dp202
g58
I5
sg59
g4
(g60
g6
Ntp203
Rp204
(dp205
g15
S'Practice Chords #3'
p206
sg65
I4
sbsbag4
(g54
g6
Ntp207
Rp208
(dp209
g58
I5
sg59
g4
(g60
g6
Ntp210
Rp211
(dp212
g15
S'Lion Rag'
p213
sg65
I4
sbsbag4
(g54
g6
Ntp214
Rp215
(dp216
g58
I5
sg59
g4
(g60
g6
Ntp217
Rp218
(dp219
g15
S'Raspberry in Azure'
p220
sg65
I4
sbsbatp221
Rp222
sg65
I4
sbasS'instructors'
p223
g2
((lp224
g13
ag35
ag23
atp225
Rp226
sS'songs'
p227
g2
((lp228
g4
(g60
g6
Ntp229
Rp230
(dp231
g15
S"Handel's Messiah Oritorio Overture"
p232
sg65
I5
sbag197
ag137
ag218
ag167
ag4
(g60
g6
Ntp233
Rp234
(dp235
g15
S'Clocks'
p236
sg65
I5
sbag190
ag130
ag123
ag4
(g60
g6
Ntp237
Rp238
(dp239
g15
S'Practice Chords #6'
p240
sg65
I5
sbag211
ag93
ag70
ag107
ag77
ag4
(g60
g6
Ntp241
Rp242
(dp243
g15
S'Practice Chords #7'
p244
sg65
I5
sbag4
(g60
g6
Ntp245
Rp246
(dp247
g15
S'Practice Chords #8'
p248
sg65
I5
sbag174
ag62
ag160
ag100
ag204
ag153
atp249
Rp250
s.