(dp0
S'students'
p1
c__builtin__
set
p2
((lp3
ccopy_reg
_reconstructor
p4
(cStudent
Student
p5
c__builtin__
object
p6
Ntp7
Rp8
(dp9
S'weeks'
p10
(lp11
g4
(cWeek
Week
p12
g6
Ntp13
Rp14
(dp15
S'weekStartDate'
p16
cdatetime
date
p17
(S'\x07\xdb\t\x01'
p18
tp19
Rp20
sS'myPlayList'
p21
g2
((lp22
g4
(cPlayListObject
PlayListObject
p23
g6
Ntp24
Rp25
(dp26
S'requiredPlayCount'
p27
I5
sS'song'
p28
g4
(cSong
Song
p29
g6
Ntp30
Rp31
(dp32
S'name'
p33
S'Ima Beginner'
p34
sS'level'
p35
I0
sbsbag4
(g23
g6
Ntp36
Rp37
(dp38
g27
I5
sg28
g4
(g29
g6
Ntp39
Rp40
(dp41
g33
S'Hot Cross Buns'
p42
sg35
I0
sbsbag4
(g23
g6
Ntp43
Rp44
(dp45
g27
I5
sg28
g4
(g29
g6
Ntp46
Rp47
(dp48
g33
S'Practice Scale 1'
p49
sg35
I0
sbsbatp50
Rp51
sg35
I0
sbag4
(g12
g6
Ntp52
Rp53
(dp54
g16
g17
(S'\x07\xdb\t\x08'
p55
tp56
Rp57
sg21
g2
((lp58
g4
(g23
g6
Ntp59
Rp60
(dp61
g27
I5
sg28
g4
(g29
g6
Ntp62
Rp63
(dp64
g33
S'Baa Baa Black Sheep'
p65
sg35
I1
sbsbag4
(g23
g6
Ntp66
Rp67
(dp68
g27
I5
sg28
g4
(g29
g6
Ntp69
Rp70
(dp71
g33
S'Practice Scale 2'
p72
sg35
I1
sbsbag4
(g23
g6
Ntp73
Rp74
(dp75
g27
I5
sg28
g4
(g29
g6
Ntp76
Rp77
(dp78
g33
S'Twinkle, Twinkle'
p79
sg35
I1
sbsbatp80
Rp81
sg35
I1
sbag4
(g12
g6
Ntp82
Rp83
(dp84
g16
g17
(S'\x07\xdb\t\x0f'
p85
tp86
Rp87
sg21
g2
((lp88
g4
(g23
g6
Ntp89
Rp90
(dp91
g27
I5
sg28
g4
(g29
g6
Ntp92
Rp93
(dp94
g33
S'Fur Elise'
p95
sg35
I2
sbsbag4
(g23
g6
Ntp96
Rp97
(dp98
g27
I5
sg28
g4
(g29
g6
Ntp99
Rp100
(dp101
g33
S'Practice Scale 3'
p102
sg35
I2
sbsbatp103
Rp104
sg35
I2
sbag4
(g12
g6
Ntp105
Rp106
(dp107
g16
g17
(S'\x07\xdb\t\x16'
p108
tp109
Rp110
sg21
g2
((lp111
g4
(g23
g6
Ntp112
Rp113
(dp114
g27
I5
sg28
g4
(g29
g6
Ntp115
Rp116
(dp117
g33
g49
sg35
I3
sbsbag4
(g23
g6
Ntp118
Rp119
(dp120
g27
I5
sg28
g4
(g29
g6
Ntp121
Rp122
(dp123
g33
S'Raspberry in Azure'
p124
sg35
I3
sbsbag4
(g23
g6
Ntp125
Rp126
(dp127
g27
I5
sg28
g4
(g29
g6
Ntp128
Rp129
(dp130
g33
S'Chopsticks'
p131
sg35
I3
sbsbatp132
Rp133
sg35
I3
sbag4
(g12
g6
Ntp134
Rp135
(dp136
g16
g17
(S'\x07\xdb\t\x1d'
p137
tp138
Rp139
sg21
g2
((lp140
g4
(g23
g6
Ntp141
Rp142
(dp143
g27
I5
sg28
g4
(g29
g6
Ntp144
Rp145
(dp146
g33
S'Tiger Rag'
p147
sg35
I4
sbsbag4
(g23
g6
Ntp148
Rp149
(dp150
g27
I5
sg28
g4
(g29
g6
Ntp151
Rp152
(dp153
g33
S'The Entertainer'
p154
sg35
I4
sbsbag4
(g23
g6
Ntp155
Rp156
(dp157
g27
I5
sg28
g4
(g29
g6
Ntp158
Rp159
(dp160
g33
S'Practice Chord 2'
p161
sg35
I4
sbsbag4
(g23
g6
Ntp162
Rp163
(dp164
g27
I5
sg28
g4
(g29
g6
Ntp165
Rp166
(dp167
g33
S'Bach Schmettrling'
p168
sg35
I4
sbsbatp169
Rp170
sg35
I4
sbasS'instructor'
p171
g4
(cInstructor
Instructor
p172
g6
Ntp173
Rp174
(dp175
g1
g2
((lp176
g4
(g5
g6
Ntp177
Rp178
(dp179
g10
(lp180
g4
(g12
g6
Ntp181
Rp182
(dp183
g16
g17
(S'\x07\xdb\t\x01'
p184
tp185
Rp186
sg21
g2
((lp187
g4
(g23
g6
Ntp188
Rp189
(dp190
g27
I5
sg28
g31
sbag4
(g23
g6
Ntp191
Rp192
(dp193
g27
I5
sg28
g40
sbag4
(g23
g6
Ntp194
Rp195
(dp196
g27
I5
sg28
g47
sbatp197
Rp198
sg35
I0
sbag4
(g12
g6
Ntp199
Rp200
(dp201
g16
g17
(S'\x07\xdb\t\x08'
p202
tp203
Rp204
sg21
g2
((lp205
g4
(g23
g6
Ntp206
Rp207
(dp208
g27
I5
sg28
g63
sbag4
(g23
g6
Ntp209
Rp210
(dp211
g27
I5
sg28
g70
sbag4
(g23
g6
Ntp212
Rp213
(dp214
g27
I5
sg28
g77
sbatp215
Rp216
sg35
I1
sbag4
(g12
g6
Ntp217
Rp218
(dp219
g16
g17
(S'\x07\xdb\t\x0f'
p220
tp221
Rp222
sg21
g2
((lp223
g4
(g23
g6
Ntp224
Rp225
(dp226
g27
I5
sg28
g93
sbag4
(g23
g6
Ntp227
Rp228
(dp229
g27
I5
sg28
g100
sbatp230
Rp231
sg35
I2
sbag4
(g12
g6
Ntp232
Rp233
(dp234
g16
g17
(S'\x07\xdb\t\x16'
p235
tp236
Rp237
sg21
g2
((lp238
g4
(g23
g6
Ntp239
Rp240
(dp241
g27
I5
sg28
g116
sbag4
(g23
g6
Ntp242
Rp243
(dp244
g27
I5
sg28
g122
sbag4
(g23
g6
Ntp245
Rp246
(dp247
g27
I5
sg28
g129
sbatp248
Rp249
sg35
I3
sbag4
(g12
g6
Ntp250
Rp251
(dp252
g16
g17
(S'\x07\xdb\t\x1d'
p253
tp254
Rp255
sg21
g2
((lp256
g4
(g23
g6
Ntp257
Rp258
(dp259
g27
I5
sg28
g152
sbag4
(g23
g6
Ntp260
Rp261
(dp262
g27
I5
sg28
g145
sbag4
(g23
g6
Ntp263
Rp264
(dp265
g27
I5
sg28
g159
sbag4
(g23
g6
Ntp266
Rp267
(dp268
g27
I5
sg28
g166
sbatp269
Rp270
sg35
I4
sbasg171
g174
sg33
S'Micky Mouse'
p271
sS'myCurrentLevel'
p272
I0
sbag8
atp273
Rp274
sg33
S'Jose Carioca'
p275
sbsg33
S'Minnie Mouse'
p276
sg272
I0
sbag4
(g5
g6
Ntp277
Rp278
(dp279
g10
(lp280
g4
(g12
g6
Ntp281
Rp282
(dp283
g16
g17
(S'\x07\xdb\t\x01'
p284
tp285
Rp286
sg21
g2
((lp287
g4
(g23
g6
Ntp288
Rp289
(dp290
g27
I5
sg28
g40
sbag4
(g23
g6
Ntp291
Rp292
(dp293
g27
I5
sg28
g31
sbag4
(g23
g6
Ntp294
Rp295
(dp296
g27
I5
sg28
g47
sbatp297
Rp298
sg35
I0
sbag4
(g12
g6
Ntp299
Rp300
(dp301
g16
g17
(S'\x07\xdb\t\x08'
p302
tp303
Rp304
sg21
g2
((lp305
g4
(g23
g6
Ntp306
Rp307
(dp308
g27
I5
sg28
g70
sbag4
(g23
g6
Ntp309
Rp310
(dp311
g27
I5
sg28
g63
sbag4
(g23
g6
Ntp312
Rp313
(dp314
g27
I5
sg28
g77
sbatp315
Rp316
sg35
I1
sbag4
(g12
g6
Ntp317
Rp318
(dp319
g16
g17
(S'\x07\xdb\t\x0f'
p320
tp321
Rp322
sg21
g2
((lp323
g4
(g23
g6
Ntp324
Rp325
(dp326
g27
I5
sg28
g100
sbag4
(g23
g6
Ntp327
Rp328
(dp329
g27
I5
sg28
g93
sbatp330
Rp331
sg35
I2
sbag4
(g12
g6
Ntp332
Rp333
(dp334
g16
g17
(S'\x07\xdb\t\x16'
p335
tp336
Rp337
sg21
g2
((lp338
g4
(g23
g6
Ntp339
Rp340
(dp341
g27
I5
sg28
g122
sbag4
(g23
g6
Ntp342
Rp343
(dp344
g27
I5
sg28
g116
sbag4
(g23
g6
Ntp345
Rp346
(dp347
g27
I5
sg28
g129
sbatp348
Rp349
sg35
I3
sbag4
(g12
g6
Ntp350
Rp351
(dp352
g16
g17
(S'\x07\xdb\t\x1d'
p353
tp354
Rp355
sg21
g2
((lp356
g4
(g23
g6
Ntp357
Rp358
(dp359
g27
I5
sg28
g159
sbag4
(g23
g6
Ntp360
Rp361
(dp362
g27
I5
sg28
g152
sbag4
(g23
g6
Ntp363
Rp364
(dp365
g27
I5
sg28
g145
sbag4
(g23
g6
Ntp366
Rp367
(dp368
g27
I5
sg28
g166
sbatp369
Rp370
sg35
I4
sbasg171
g4
(g172
g6
Ntp371
Rp372
(dp373
g1
g2
((lp374
g278
atp375
Rp376
sg33
S'Panchito'
p377
sbsg33
S'Goofy'
p378
sg272
I0
sbag4
(g5
g6
Ntp379
Rp380
(dp381
g10
(lp382
g4
(g12
g6
Ntp383
Rp384
(dp385
g16
g17
(S'\x07\xdb\t\x01'
p386
tp387
Rp388
sg21
g2
((lp389
g4
(g23
g6
Ntp390
Rp391
(dp392
g27
I5
sg28
g40
sbag4
(g23
g6
Ntp393
Rp394
(dp395
g27
I5
sg28
g31
sbag4
(g23
g6
Ntp396
Rp397
(dp398
g27
I5
sg28
g47
sbatp399
Rp400
sg35
I0
sbag4
(g12
g6
Ntp401
Rp402
(dp403
g16
g17
(S'\x07\xdb\t\x08'
p404
tp405
Rp406
sg21
g2
((lp407
g4
(g23
g6
Ntp408
Rp409
(dp410
g27
I5
sg28
g77
sbag4
(g23
g6
Ntp411
Rp412
(dp413
g27
I5
sg28
g63
sbag4
(g23
g6
Ntp414
Rp415
(dp416
g27
I5
sg28
g70
sbatp417
Rp418
sg35
I1
sbag4
(g12
g6
Ntp419
Rp420
(dp421
g16
g17
(S'\x07\xdb\t\x0f'
p422
tp423
Rp424
sg21
g2
((lp425
g4
(g23
g6
Ntp426
Rp427
(dp428
g27
I5
sg28
g93
sbag4
(g23
g6
Ntp429
Rp430
(dp431
g27
I5
sg28
g100
sbatp432
Rp433
sg35
I2
sbag4
(g12
g6
Ntp434
Rp435
(dp436
g16
g17
(S'\x07\xdb\t\x16'
p437
tp438
Rp439
sg21
g2
((lp440
g4
(g23
g6
Ntp441
Rp442
(dp443
g27
I5
sg28
g116
sbag4
(g23
g6
Ntp444
Rp445
(dp446
g27
I5
sg28
g122
sbag4
(g23
g6
Ntp447
Rp448
(dp449
g27
I5
sg28
g129
sbatp450
Rp451
sg35
I3
sbag4
(g12
g6
Ntp452
Rp453
(dp454
g16
g17
(S'\x07\xdb\t\x1d'
p455
tp456
Rp457
sg21
g2
((lp458
g4
(g23
g6
Ntp459
Rp460
(dp461
g27
I5
sg28
g145
sbag4
(g23
g6
Ntp462
Rp463
(dp464
g27
I5
sg28
g152
sbag4
(g23
g6
Ntp465
Rp466
(dp467
g27
I5
sg28
g159
sbag4
(g23
g6
Ntp468
Rp469
(dp470
g27
I5
sg28
g166
sbatp471
Rp472
sg35
I4
sbasg171
g4
(g172
g6
Ntp473
Rp474
(dp475
g1
g2
((lp476
g380
atp477
Rp478
sg33
S'Donald Duck'
p479
sbsg33
S'Daisy Duck'
p480
sg272
I0
sbag178
atp481
Rp482
sS'instructors'
p483
g2
((lp484
g174
ag474
ag372
atp485
Rp486
sS'songs'
p487
g2
((lp488
g63
ag159
ag70
ag122
ag4
(g29
g6
Ntp489
Rp490
(dp491
g33
S'Clocks'
p492
sg35
I5
sbag93
ag145
ag100
ag166
ag31
ag152
ag40
ag116
ag47
ag4
(g29
g6
Ntp493
Rp494
(dp495
g33
S'Practice Chord 3'
p496
sg35
I5
sbag77
ag129
atp497
Rp498
s.