(dp0
S'students'
p1
(lp2
ccopy_reg
_reconstructor
p3
(cStudent
Student
p4
c__builtin__
object
p5
Ntp6
Rp7
(dp8
S'weeks'
p9
(lp10
g3
(cWeek
Week
p11
g5
Ntp12
Rp13
(dp14
S'weekStartDate'
p15
cdatetime
date
p16
(S'\x07\xdb\t\x01'
p17
tp18
Rp19
sS'myPlayList'
p20
c__builtin__
set
p21
((lp22
g3
(cPlayListObject
PlayListObject
p23
g5
Ntp24
Rp25
(dp26
S'requiredPlayCount'
p27
I5
sS'song'
p28
g3
(cSong
Song
p29
g5
Ntp30
Rp31
(dp32
S'name'
p33
S'Ima Beginner'
p34
sS'level'
p35
I0
sbsbag3
(g23
g5
Ntp36
Rp37
(dp38
g27
I5
sg28
g3
(g29
g5
Ntp39
Rp40
(dp41
g33
S'Practice Scale 1'
p42
sg35
I0
sbsbag3
(g23
g5
Ntp43
Rp44
(dp45
g27
I5
sg28
g3
(g29
g5
Ntp46
Rp47
(dp48
g33
S'Hot Cross Buns'
p49
sg35
I0
sbsbatp50
Rp51
sg35
I0
sbag3
(g11
g5
Ntp52
Rp53
(dp54
g15
g16
(S'\x07\xdb\t\x08'
p55
tp56
Rp57
sg20
g21
((lp58
g3
(g23
g5
Ntp59
Rp60
(dp61
g27
I5
sg28
g3
(g29
g5
Ntp62
Rp63
(dp64
g33
S'Baa Baa Black Sheep'
p65
sg35
I1
sbsbag3
(g23
g5
Ntp66
Rp67
(dp68
g27
I5
sg28
g3
(g29
g5
Ntp69
Rp70
(dp71
g33
S'Practice Scale 2'
p72
sg35
I1
sbsbag3
(g23
g5
Ntp73
Rp74
(dp75
g27
I5
sg28
g3
(g29
g5
Ntp76
Rp77
(dp78
g33
S'Twinkle, Twinkle'
p79
sg35
I1
sbsbatp80
Rp81
sg35
I1
sbag3
(g11
g5
Ntp82
Rp83
(dp84
g15
g16
(S'\x07\xdb\t\x0f'
p85
tp86
Rp87
sg20
g21
((lp88
g3
(g23
g5
Ntp89
Rp90
(dp91
g27
I5
sg28
g3
(g29
g5
Ntp92
Rp93
(dp94
g33
S'Fur Elise'
p95
sg35
I2
sbsbag3
(g23
g5
Ntp96
Rp97
(dp98
g27
I5
sg28
g3
(g29
g5
Ntp99
Rp100
(dp101
g33
S'Practice Scale 3'
p102
sg35
I2
sbsbatp103
Rp104
sg35
I2
sbag3
(g11
g5
Ntp105
Rp106
(dp107
g15
g16
(S'\x07\xdb\t\x16'
p108
tp109
Rp110
sg20
g21
((lp111
g3
(g23
g5
Ntp112
Rp113
(dp114
g27
I5
sg28
g3
(g29
g5
Ntp115
Rp116
(dp117
g33
S'Chopsticks'
p118
sg35
I3
sbsbag3
(g23
g5
Ntp119
Rp120
(dp121
g27
I5
sg28
g3
(g29
g5
Ntp122
Rp123
(dp124
g33
S'Raspberry in Azure'
p125
sg35
I3
sbsbag3
(g23
g5
Ntp126
Rp127
(dp128
g27
I5
sg28
g3
(g29
g5
Ntp129
Rp130
(dp131
g33
g42
sg35
I3
sbsbatp132
Rp133
sg35
I3
sbag3
(g11
g5
Ntp134
Rp135
(dp136
g15
g16
(S'\x07\xdb\t\x1d'
p137
tp138
Rp139
sg20
g21
((lp140
g3
(g23
g5
Ntp141
Rp142
(dp143
g27
I5
sg28
g3
(g29
g5
Ntp144
Rp145
(dp146
g33
S'The Entertainer'
p147
sg35
I4
sbsbag3
(g23
g5
Ntp148
Rp149
(dp150
g27
I5
sg28
g3
(g29
g5
Ntp151
Rp152
(dp153
g33
S'Bach Schmettrling'
p154
sg35
I4
sbsbag3
(g23
g5
Ntp155
Rp156
(dp157
g27
I5
sg28
g3
(g29
g5
Ntp158
Rp159
(dp160
g33
S'Practice Chord 2'
p161
sg35
I4
sbsbag3
(g23
g5
Ntp162
Rp163
(dp164
g27
I5
sg28
g3
(g29
g5
Ntp165
Rp166
(dp167
g33
S'Tiger Rag'
p168
sg35
I4
sbsbatp169
Rp170
sg35
I4
sbasS'instructor'
p171
g3
(cInstructor
Instructor
p172
g5
Ntp173
Rp174
(dp175
S'students'
p176
g21
((lp177
g7
atp178
Rp179
sg33
S'Panchito'
p180
sbsg33
S'Goofy'
p181
sS'myCurrentLevel'
p182
I0
sbag3
(g4
g5
Ntp183
Rp184
(dp185
g9
(lp186
g3
(g11
g5
Ntp187
Rp188
(dp189
g15
g16
(S'\x07\xdb\t\x01'
p190
tp191
Rp192
sg20
g21
((lp193
g3
(g23
g5
Ntp194
Rp195
(dp196
g27
I5
sg28
g31
sbag3
(g23
g5
Ntp197
Rp198
(dp199
g27
I5
sg28
g47
sbag3
(g23
g5
Ntp200
Rp201
(dp202
g27
I5
sg28
g40
sbatp203
Rp204
sg35
I0
sbag3
(g11
g5
Ntp205
Rp206
(dp207
g15
g16
(S'\x07\xdb\t\x08'
p208
tp209
Rp210
sg20
g21
((lp211
g3
(g23
g5
Ntp212
Rp213
(dp214
g27
I5
sg28
g70
sbag3
(g23
g5
Ntp215
Rp216
(dp217
g27
I5
sg28
g77
sbag3
(g23
g5
Ntp218
Rp219
(dp220
g27
I5
sg28
g63
sbatp221
Rp222
sg35
I1
sbag3
(g11
g5
Ntp223
Rp224
(dp225
g15
g16
(S'\x07\xdb\t\x0f'
p226
tp227
Rp228
sg20
g21
((lp229
g3
(g23
g5
Ntp230
Rp231
(dp232
g27
I5
sg28
g93
sbag3
(g23
g5
Ntp233
Rp234
(dp235
g27
I5
sg28
g100
sbatp236
Rp237
sg35
I2
sbag3
(g11
g5
Ntp238
Rp239
(dp240
g15
g16
(S'\x07\xdb\t\x16'
p241
tp242
Rp243
sg20
g21
((lp244
g3
(g23
g5
Ntp245
Rp246
(dp247
g27
I5
sg28
g116
sbag3
(g23
g5
Ntp248
Rp249
(dp250
g27
I5
sg28
g123
sbag3
(g23
g5
Ntp251
Rp252
(dp253
g27
I5
sg28
g130
sbatp254
Rp255
sg35
I3
sbag3
(g11
g5
Ntp256
Rp257
(dp258
g15
g16
(S'\x07\xdb\t\x1d'
p259
tp260
Rp261
sg20
g21
((lp262
g3
(g23
g5
Ntp263
Rp264
(dp265
g27
I5
sg28
g166
sbag3
(g23
g5
Ntp266
Rp267
(dp268
g27
I5
sg28
g159
sbag3
(g23
g5
Ntp269
Rp270
(dp271
g27
I5
sg28
g152
sbag3
(g23
g5
Ntp272
Rp273
(dp274
g27
I5
sg28
g145
sbatp275
Rp276
sg35
I4
sbasg171
g3
(g172
g5
Ntp277
Rp278
(dp279
g176
g21
((lp280
g184
atp281
Rp282
sg33
S'Donald Duck'
p283
sbsg33
S'Daisy Duck'
p284
sg182
I0
sbag3
(g4
g5
Ntp285
Rp286
(dp287
g9
(lp288
g3
(g11
g5
Ntp289
Rp290
(dp291
g15
g16
(S'\x07\xdb\t\x01'
p292
tp293
Rp294
sg20
g21
((lp295
g3
(g23
g5
Ntp296
Rp297
(dp298
g27
I5
sg28
g47
sbag3
(g23
g5
Ntp299
Rp300
(dp301
g27
I5
sg28
g31
sbag3
(g23
g5
Ntp302
Rp303
(dp304
g27
I5
sg28
g40
sbatp305
Rp306
sg35
I0
sbag3
(g11
g5
Ntp307
Rp308
(dp309
g15
g16
(S'\x07\xdb\t\x08'
p310
tp311
Rp312
sg20
g21
((lp313
g3
(g23
g5
Ntp314
Rp315
(dp316
g27
I5
sg28
g77
sbag3
(g23
g5
Ntp317
Rp318
(dp319
g27
I5
sg28
g70
sbag3
(g23
g5
Ntp320
Rp321
(dp322
g27
I5
sg28
g63
sbatp323
Rp324
sg35
I1
sbag3
(g11
g5
Ntp325
Rp326
(dp327
g15
g16
(S'\x07\xdb\t\x0f'
p328
tp329
Rp330
sg20
g21
((lp331
g3
(g23
g5
Ntp332
Rp333
(dp334
g27
I5
sg28
g100
sbag3
(g23
g5
Ntp335
Rp336
(dp337
g27
I5
sg28
g93
sbatp338
Rp339
sg35
I2
sbag3
(g11
g5
Ntp340
Rp341
(dp342
g15
g16
(S'\x07\xdb\t\x16'
p343
tp344
Rp345
sg20
g21
((lp346
g3
(g23
g5
Ntp347
Rp348
(dp349
g27
I5
sg28
g116
sbag3
(g23
g5
Ntp350
Rp351
(dp352
g27
I5
sg28
g123
sbag3
(g23
g5
Ntp353
Rp354
(dp355
g27
I5
sg28
g130
sbatp356
Rp357
sg35
I3
sbag3
(g11
g5
Ntp358
Rp359
(dp360
g15
g16
(S'\x07\xdb\t\x1d'
p361
tp362
Rp363
sg20
g21
((lp364
g3
(g23
g5
Ntp365
Rp366
(dp367
g27
I5
sg28
g166
sbag3
(g23
g5
Ntp368
Rp369
(dp370
g27
I5
sg28
g145
sbag3
(g23
g5
Ntp371
Rp372
(dp373
g27
I5
sg28
g159
sbag3
(g23
g5
Ntp374
Rp375
(dp376
g27
I5
sg28
g152
sbatp377
Rp378
sg35
I4
sbasg171
g3
(g172
g5
Ntp379
Rp380
(dp381
g176
g21
((lp382
g3
(g4
g5
Ntp383
Rp384
(dp385
g9
(lp386
g3
(g11
g5
Ntp387
Rp388
(dp389
g15
g16
(S'\x07\xdb\t\x01'
p390
tp391
Rp392
sg20
g21
((lp393
g3
(g23
g5
Ntp394
Rp395
(dp396
g27
I5
sg28
g31
sbag3
(g23
g5
Ntp397
Rp398
(dp399
g27
I5
sg28
g47
sbag3
(g23
g5
Ntp400
Rp401
(dp402
g27
I5
sg28
g40
sbatp403
Rp404
sg35
I0
sbag3
(g11
g5
Ntp405
Rp406
(dp407
g15
g16
(S'\x07\xdb\t\x08'
p408
tp409
Rp410
sg20
g21
((lp411
g3
(g23
g5
Ntp412
Rp413
(dp414
g27
I5
sg28
g70
sbag3
(g23
g5
Ntp415
Rp416
(dp417
g27
I5
sg28
g77
sbag3
(g23
g5
Ntp418
Rp419
(dp420
g27
I5
sg28
g63
sbatp421
Rp422
sg35
I1
sbag3
(g11
g5
Ntp423
Rp424
(dp425
g15
g16
(S'\x07\xdb\t\x0f'
p426
tp427
Rp428
sg20
g21
((lp429
g3
(g23
g5
Ntp430
Rp431
(dp432
g27
I5
sg28
g93
sbag3
(g23
g5
Ntp433
Rp434
(dp435
g27
I5
sg28
g100
sbatp436
Rp437
sg35
I2
sbag3
(g11
g5
Ntp438
Rp439
(dp440
g15
g16
(S'\x07\xdb\t\x16'
p441
tp442
Rp443
sg20
g21
((lp444
g3
(g23
g5
Ntp445
Rp446
(dp447
g27
I5
sg28
g116
sbag3
(g23
g5
Ntp448
Rp449
(dp450
g27
I5
sg28
g123
sbag3
(g23
g5
Ntp451
Rp452
(dp453
g27
I5
sg28
g130
sbatp454
Rp455
sg35
I3
sbag3
(g11
g5
Ntp456
Rp457
(dp458
g15
g16
(S'\x07\xdb\t\x1d'
p459
tp460
Rp461
sg20
g21
((lp462
g3
(g23
g5
Ntp463
Rp464
(dp465
g27
I5
sg28
g166
sbag3
(g23
g5
Ntp466
Rp467
(dp468
g27
I5
sg28
g159
sbag3
(g23
g5
Ntp469
Rp470
(dp471
g27
I5
sg28
g145
sbag3
(g23
g5
Ntp472
Rp473
(dp474
g27
I5
sg28
g152
sbatp475
Rp476
sg35
I4
sbasg171
g380
sg33
S'Minnie Mouse'
p477
sg182
I0
sbag286
atp478
Rp479
sg33
S'Jose Carioca'
p480
sbsg33
S'Micky Mouse'
p481
sg182
I0
sbag384
asS'instructors'
p482
(lp483
g278
ag380
ag174
asS'songs'
p484
g21
((lp485
g63
ag40
ag3
(g29
g5
Ntp486
Rp487
(dp488
g33
S'Clocks'
p489
sg35
I5
sbag123
ag130
ag93
ag70
ag47
ag152
ag77
ag116
ag159
ag31
ag100
ag3
(g29
g5
Ntp490
Rp491
(dp492
g33
S'Practice Chord 3'
p493
sg35
I5
sbag145
ag166
atp494
Rp495
s.