(dp0
S'students'
p1
c__builtin__
set
p2
((lp3
ccopy_reg
_reconstructor
p4
(cStudent
Student
p5
c__builtin__
object
p6
Ntp7
Rp8
(dp9
S'instructor'
p10
g4
(cInstructor
Instructor
p11
g6
Ntp12
Rp13
(dp14
S'name'
p15
S'test'
p16
sbsg15
S'crystal'
p17
sS'myCurrentLevel'
p18
I0
sbag4
(g5
g6
Ntp19
Rp20
(dp21
g10
g13
sg15
S'testw'
p22
sg18
I0
sbag4
(g5
g6
Ntp23
Rp24
(dp25
g10
g13
sg15
S'test1'
p26
sg18
I0
sbatp27
Rp28
sS'instructors'
p29
g2
((lp30
g13
ag4
(g11
g6
Ntp31
Rp32
(dp33
g15
S'sheket'
p34
sbatp35
Rp36
sS'songs'
p37
g2
((lp38
g4
(cSong
Song
p39
g6
Ntp40
Rp41
(dp42
g15
S'ali baba'
p43
sS'level'
p44
I1
sbag4
(g39
g6
Ntp45
Rp46
(dp47
g15
S'Raspberry in Teal'
p48
sg44
I10
sbag4
(g39
g6
Ntp49
Rp50
(dp51
g15
S'Practice Chord #4'
p52
sg44
I4
sbag4
(g39
g6
Ntp53
Rp54
(dp55
g15
S'bob'
p56
sg44
I2
sbag4
(g39
g6
Ntp57
Rp58
(dp59
g15
S'test'
p60
sg44
I4
sbatp61
Rp62
s.