(dp0
S'students'
p1
c__builtin__
set
p2
((lp3
ccopy_reg
_reconstructor
p4
(cStudent
Student
p5
c__builtin__
object
p6
Ntp7
Rp8
(dp9
S'instructor'
p10
g4
(cInstructor
Instructor
p11
g6
Ntp12
Rp13
(dp14
S'name'
p15
S'Jose Carioca'
p16
sbsg15
S'Goofy'
p17
sS'myCurrentLevel'
p18
I0
sbag4
(g5
g6
Ntp19
Rp20
(dp21
g10
g4
(g11
g6
Ntp22
Rp23
(dp24
g15
S'Panchito'
p25
sbsg15
S'Mickey Mouse'
p26
sg18
I0
sbag4
(g5
g6
Ntp27
Rp28
(dp29
g10
g23
sg15
S'Minnie Mouse'
p30
sg18
I0
sbag4
(g5
g6
Ntp31
Rp32
(dp33
g10
g4
(g11
g6
Ntp34
Rp35
(dp36
g15
S'Donald Duck'
p37
sbsg15
S'Daisy Duck'
p38
sg18
I0
sbatp39
Rp40
sS'weeks'
p41
(lp42
g4
(cWeek
Week
p43
g6
Ntp44
Rp45
(dp46
S'weekStartDate'
p47
cdatetime
date
p48
(S'\x07\xdb\t\x05'
p49
tp50
Rp51
sS'myPlayList'
p52
g2
((lp53
g4
(cPlayListObject
PlayListObject
p54
g6
Ntp55
Rp56
(dp57
S'song'
p58
g4
(cSong
Song
p59
g6
Ntp60
Rp61
(dp62
g15
S'Ima Beginner'
p63
sS'level'
p64
I0
sbsS'lastPlayed'
p65
cdatetime
datetime
p66
(S'\x07\xdb\n\x03\x17\x00,\x0e\xf2\x9a'
p67
tp68
Rp69
sS'currentPlayCount'
p70
I5
sS'requiredPlayCount'
p71
I5
sbag4
(cAssignmentObject
AssignmentObject
p72
g6
Ntp73
Rp74
(dp75
g58
g4
(g59
g6
Ntp76
Rp77
(dp78
g15
S'Hot Cross Buns'
p79
sg64
I1
sbsg65
g66
(S'\x07\xdb\n\x03\x16;;\x0cga'
p80
tp81
Rp82
sg70
I5
sg71
I1
sbag4
(g54
g6
Ntp83
Rp84
(dp85
g58
g4
(g59
g6
Ntp86
Rp87
(dp88
g15
S'Scale in C'
p89
sg64
I0
sbsg65
g66
(S'\x07\xdb\n\x03\x165$\x0f\x01\xf3'
p90
tp91
Rp92
sg70
I1
sg71
I5
sbag4
(g54
g6
Ntp93
Rp94
(dp95
g58
g4
(g59
g6
Ntp96
Rp97
(dp98
g15
S'Scale in A'
p99
sg64
I0
sbsg65
g66
(S'\x07\xdb\n\x03\x165$\x0f\x01\xf6'
p100
tp101
Rp102
sg70
I1
sg71
I5
sbatp103
Rp104
sg64
I0
sbag4
(g43
g6
Ntp105
Rp106
(dp107
g47
g48
(S'\x07\xdb\t\x0c'
p108
tp109
Rp110
sg52
g2
((lp111
g4
(g54
g6
Ntp112
Rp113
(dp114
g71
I5
sg58
g4
(g59
g6
Ntp115
Rp116
(dp117
g15
S'Scale in C#'
p118
sg64
I1
sbsbag4
(g54
g6
Ntp119
Rp120
(dp121
g71
I5
sg58
g4
(g59
g6
Ntp122
Rp123
(dp124
g15
S'Twinkle Twinkle'
p125
sg64
I1
sbsbag4
(g54
g6
Ntp126
Rp127
(dp128
g71
I5
sg58
g77
sbatp129
Rp130
sg64
I1
sbag4
(g43
g6
Ntp131
Rp132
(dp133
g47
g48
(S'\x07\xdb\t\x13'
p134
tp135
Rp136
sg52
g2
((lp137
g4
(g54
g6
Ntp138
Rp139
(dp140
g71
I5
sg58
g4
(g59
g6
Ntp141
Rp142
(dp143
g15
S'Bach Schmetterling'
p144
sg64
I2
sbsbag4
(g54
g6
Ntp145
Rp146
(dp147
g71
I5
sg58
g4
(g59
g6
Ntp148
Rp149
(dp150
g15
S"Bethooven's 22nd"
p151
sg64
I2
sbsbag4
(g54
g6
Ntp152
Rp153
(dp154
g71
I5
sg58
g4
(g59
g6
Ntp155
Rp156
(dp157
g15
S'Fur Elise'
p158
sg64
I2
sbsbatp159
Rp160
sg64
I2
sbag4
(g43
g6
Ntp161
Rp162
(dp163
g47
g48
(S'\x07\xdb\t\x1a'
p164
tp165
Rp166
sg52
g2
((lp167
g4
(g54
g6
Ntp168
Rp169
(dp170
g71
I5
sg58
g4
(g59
g6
Ntp171
Rp172
(dp173
g15
S'Chopsticks'
p174
sg64
I3
sbsbag4
(g54
g6
Ntp175
Rp176
(dp177
g71
I5
sg58
g4
(g59
g6
Ntp178
Rp179
(dp180
g15
S'Practice Chords #2'
p181
sg64
I3
sbsbag4
(g54
g6
Ntp182
Rp183
(dp184
g71
I5
sg58
g4
(g59
g6
Ntp185
Rp186
(dp187
g15
S'The Entertainer'
p188
sg64
I3
sbsbag4
(g54
g6
Ntp189
Rp190
(dp191
g71
I5
sg58
g4
(g59
g6
Ntp192
Rp193
(dp194
g15
S'Practice Chords #1'
p195
sg64
I3
sbsbatp196
Rp197
sg64
I3
sbag4
(g43
g6
Ntp198
Rp199
(dp200
g47
g48
(S'\x07\xdb\n\x03'
p201
tp202
Rp203
sg52
g2
((lp204
g4
(g54
g6
Ntp205
Rp206
(dp207
g71
I5
sg58
g4
(g59
g6
Ntp208
Rp209
(dp210
g15
S'Lion Rag'
p211
sg64
I4
sbsbag4
(g54
g6
Ntp212
Rp213
(dp214
g71
I5
sg58
g4
(g59
g6
Ntp215
Rp216
(dp217
g15
S'Practice Chords #4'
p218
sg64
I4
sbsbag4
(g54
g6
Ntp219
Rp220
(dp221
g71
I5
sg58
g4
(g59
g6
Ntp222
Rp223
(dp224
g15
S'Raspberry in Azure'
p225
sg64
I4
sbsbag4
(g54
g6
Ntp226
Rp227
(dp228
g71
I5
sg58
g4
(g59
g6
Ntp229
Rp230
(dp231
g15
S'Practice Chords #5'
p232
sg64
I4
sbsbag4
(g54
g6
Ntp233
Rp234
(dp235
g71
I5
sg58
g4
(g59
g6
Ntp236
Rp237
(dp238
g15
S'Practice Chords #3'
p239
sg64
I4
sbsbatp240
Rp241
sg64
I4
sbasS'instructors'
p242
g2
((lp243
g35
ag23
ag13
atp244
Rp245
sS'songs'
p246
g2
((lp247
g4
(g59
g6
Ntp248
Rp249
(dp250
g15
S'Clocks'
p251
sg64
I5
sbag4
(g59
g6
Ntp252
Rp253
(dp254
g15
S"Handel's Messiah Oritorio Overture"
p255
sg64
I5
sbag4
(g59
g6
Ntp256
Rp257
(dp258
g15
S'Practice Chords #6'
p259
sg64
I5
sbag4
(g59
g6
Ntp260
Rp261
(dp262
g15
S'Practice Chords #8'
p263
sg64
I5
sbag4
(g59
g6
Ntp264
Rp265
(dp266
g15
S'Practice Chords #7'
p267
sg64
I5
sbag149
ag172
ag97
ag87
ag116
ag186
ag193
ag61
ag179
ag77
ag156
ag223
ag209
ag237
ag123
ag230
ag216
ag142
atp268
Rp269
s.